target datalayout = "e-m:e-p270:32:32-p271:32:32-p272:64:64-i64:64-i128:128-f80:128-n8:16:32:64-S128"
target triple = "x86_64-pc-linux-gnu"

%struct.mbedtls_ecp_point = type { %struct.mbedtls_mpi, %struct.mbedtls_mpi, %struct.mbedtls_mpi }
%struct.mbedtls_mpi = type { ptr, i16, i16 }
%struct.mbedtls_ecp_group = type { i32, %struct.mbedtls_mpi, %struct.mbedtls_mpi, %struct.mbedtls_mpi, %struct.mbedtls_ecp_point, %struct.mbedtls_mpi, i64, i64, i32, ptr, ptr, ptr, ptr, ptr, i64 }
%struct.mbedtls_ecp_keypair = type { %struct.mbedtls_ecp_group, %struct.mbedtls_mpi, %struct.mbedtls_ecp_point }

; Function Attrs: nounwind uwtable
define hidden i32 @mbedtls_ecdsa_genkey(ptr noundef %0, i32 noundef %1, ptr noundef %2, ptr noundef %3) #0 {
  %5 = alloca i32, align 4
  %6 = alloca ptr, align 8
  %7 = alloca i32, align 4
  %8 = alloca ptr, align 8
  %9 = alloca ptr, align 8
  %10 = alloca i32, align 4
  %11 = alloca i32, align 4
  store ptr %0, ptr %6, align 8, !tbaa !36
  store i32 %1, ptr %7, align 4, !tbaa !3
  store ptr %2, ptr %8, align 8, !tbaa !16
  store ptr %3, ptr %9, align 8, !tbaa !16
  call void @llvm.lifetime.start.p0(i64 4, ptr %10) #6
  store i32 0, ptr %10, align 4, !tbaa !3
  %12 = load ptr, ptr %6, align 8, !tbaa !36
  %13 = getelementptr inbounds nuw %struct.mbedtls_ecp_keypair, ptr %12, i32 0, i32 0
  %14 = load i32, ptr %7, align 4, !tbaa !3
  %15 = call i32 @mbedtls_ecp_group_load(ptr noundef %13, i32 noundef %14)
  store i32 %15, ptr %10, align 4, !tbaa !3
  %16 = load i32, ptr %10, align 4, !tbaa !3
  %17 = icmp ne i32 %16, 0
  br i1 %17, label %18, label %20

18:                                               ; preds = %4
  %19 = load i32, ptr %10, align 4, !tbaa !3
  store i32 %19, ptr %5, align 4
  store i32 1, ptr %11, align 4
  br label %30

20:                                               ; preds = %4
  %21 = load ptr, ptr %6, align 8, !tbaa !36
  %22 = getelementptr inbounds nuw %struct.mbedtls_ecp_keypair, ptr %21, i32 0, i32 0
  %23 = load ptr, ptr %6, align 8, !tbaa !36
  %24 = getelementptr inbounds nuw %struct.mbedtls_ecp_keypair, ptr %23, i32 0, i32 1
  %25 = load ptr, ptr %6, align 8, !tbaa !36
  %26 = getelementptr inbounds nuw %struct.mbedtls_ecp_keypair, ptr %25, i32 0, i32 2
  %27 = load ptr, ptr %8, align 8, !tbaa !16
  %28 = load ptr, ptr %9, align 8, !tbaa !16
  %29 = call i32 @mbedtls_ecp_gen_keypair(ptr noundef %22, ptr noundef %24, ptr noundef %26, ptr noundef %27, ptr noundef %28)
  store i32 %29, ptr %5, align 4
  store i32 1, ptr %11, align 4
  br label %30

30:                                               ; preds = %20, %18
  call void @llvm.lifetime.end.p0(i64 4, ptr %10) #6
  %31 = load i32, ptr %5, align 4
  ret i32 %31
}