; Function Attrs: nounwind uwtable
define hidden i32 @mbedtls_ecdsa_genkey(ptr noundef %0, i32 noundef %1, ptr noundef %2, ptr noundef %3) local_unnamed_addr #1 {
  %5 = tail call i32 @mbedtls_ecp_group_load(ptr noundef %0, i32 noundef %1) #7
  %.not = icmp eq i32 %5, 0
  br i1 %.not, label %6, label %10

6:                                                ; preds = %4
  %7 = getelementptr inbounds nuw i8, ptr %0, i64 192
  %8 = getelementptr inbounds nuw i8, ptr %0, i64 208
  %9 = tail call i32 @mbedtls_ecp_gen_keypair(ptr noundef %0, ptr noundef nonnull %7, ptr noundef nonnull %8, ptr noundef %2, ptr noundef %3) #7
  br label %10

10:                                               ; preds = %4, %6
  %.0 = phi i32 [ %9, %6 ], [ %5, %4 ]
  ret i32 %.0
}